target datalayout = "e-m:e-p270:32:32-p271:32:32-p272:64:64-i64:64-i128:128-f80:128-n8:16:32:64-S128"
target triple = "x86_64-pc-linux-gnu"

%union.SourceSpan = type { i64 }
%struct.GenContext_ = type { i8, ptr, ptr, ptr, ptr, ptr, ptr, ptr, ptr, ptr, ptr, ptr, ptr, ptr, ptr, ptr, ptr, ptr, ptr, ptr, ptr, ptr, ptr, ptr, ptr, ptr, ptr, ptr, ptr, ptr, ptr, ptr, ptr, %struct.anon.85, i32, i32, %struct.DebugContext, ptr, ptr, ptr, %struct.BEValue, i8, %union.SourceSpan, ptr, ptr, ptr, ptr }
%struct.anon.85 = type { ptr, ptr, ptr }
%struct.DebugContext = type { i16, ptr, ptr, %struct.DebugFile_, ptr, ptr, ptr, ptr }
%struct.DebugFile_ = type { i16, ptr }
%struct.BEValue = type { i8, i32, ptr, ptr, ptr }
%struct.VHeader_ = type { i32, i32, [0 x i8] }
%struct.File = type { i16, ptr, i64, ptr, ptr, ptr }

; Function Attrs: nounwind uwtable
define internal ptr @vec_new_(i64 noundef %0, i64 noundef %1) #0 {
  %3 = alloca i64, align 8
  %4 = alloca i64, align 8
  %5 = alloca ptr, align 8
  store i64 %0, ptr %3, align 8
  store i64 %1, ptr %4, align 8
  %6 = load i64, ptr %3, align 8
  %7 = load i64, ptr %4, align 8
  %8 = mul i64 %6, %7
  %9 = add i64 %8, 8
  %10 = call ptr @calloc_arena(i64 noundef %9)
  store ptr %10, ptr %5, align 8
  %11 = load i64, ptr %4, align 8
  %12 = trunc i64 %11 to i32
  %13 = load ptr, ptr %5, align 8
  %14 = getelementptr inbounds %struct.VHeader_, ptr %13, i32 0, i32 1
  store i32 %12, ptr %14, align 4
  %15 = load ptr, ptr %5, align 8
  ret ptr %15
}

; Function Attrs: nounwind uwtable
define internal ptr @expand_(ptr noundef %0, i64 noundef %1) #0 {
  %3 = alloca ptr, align 8
  %4 = alloca i64, align 8
  %5 = alloca ptr, align 8
  %6 = alloca ptr, align 8
  %7 = alloca i64, align 8
  store ptr %0, ptr %3, align 8
  store i64 %1, ptr %4, align 8
  %8 = load ptr, ptr %3, align 8
  %9 = icmp ne ptr %8, null
  br i1 %9, label %13, label %10

10:                                               ; preds = %2
  %11 = load i64, ptr %4, align 8
  %12 = call ptr @vec_new_(i64 noundef %11, i64 noundef 8)
  store ptr %12, ptr %5, align 8
  br label %16

13:                                               ; preds = %2
  %14 = load ptr, ptr %3, align 8
  %15 = getelementptr inbounds %struct.VHeader_, ptr %14, i64 -1
  store ptr %15, ptr %5, align 8
  br label %16

16:                                               ; preds = %13, %10
  %17 = load ptr, ptr %5, align 8
  %18 = getelementptr inbounds %struct.VHeader_, ptr %17, i32 0, i32 0
  %19 = load i32, ptr %18, align 4
  %20 = load ptr, ptr %5, align 8
  %21 = getelementptr inbounds %struct.VHeader_, ptr %20, i32 0, i32 1
  %22 = load i32, ptr %21, align 4
  %23 = icmp eq i32 %19, %22
  br i1 %23, label %24, label %49

24:                                               ; preds = %16
  %25 = load i64, ptr %4, align 8
  %26 = load ptr, ptr %5, align 8
  %27 = getelementptr inbounds %struct.VHeader_, ptr %26, i32 0, i32 1
  %28 = load i32, ptr %27, align 4
  %29 = shl i32 %28, 1
  %30 = zext i32 %29 to i64
  %31 = call ptr @vec_new_(i64 noundef %25, i64 noundef %30)
  store ptr %31, ptr %6, align 8
  %32 = load i64, ptr %4, align 8
  %33 = load ptr, ptr %5, align 8
  %34 = getelementptr inbounds %struct.VHeader_, ptr %33, i32 0, i32 1
  %35 = load i32, ptr %34, align 4
  %36 = zext i32 %35 to i64
  %37 = mul i64 %32, %36
  %38 = add i64 %37, 8
  store i64 %38, ptr %7, align 8
  %39 = load ptr, ptr %6, align 8
  %40 = load ptr, ptr %5, align 8
  %41 = load i64, ptr %7, align 8
  call void @llvm.memcpy.p0.p0.i64(ptr align 4 %39, ptr align 4 %40, i64 %41, i1 false)
  %42 = load ptr, ptr %6, align 8
  store ptr %42, ptr %5, align 8
  %43 = load ptr, ptr %5, align 8
  %44 = getelementptr inbounds %struct.VHeader_, ptr %43, i32 0, i32 1
  %45 = load i32, ptr %44, align 4
  %46 = shl i32 %45, 1
  %47 = load ptr, ptr %6, align 8
  %48 = getelementptr inbounds %struct.VHeader_, ptr %47, i32 0, i32 1
  store i32 %46, ptr %48, align 4
  br label %49

49:                                               ; preds = %24, %16
  %50 = load ptr, ptr %5, align 8
  %51 = getelementptr inbounds %struct.VHeader_, ptr %50, i32 0, i32 0
  %52 = load i32, ptr %51, align 4
  %53 = add i32 %52, 1
  store i32 %53, ptr %51, align 4
  %54 = load ptr, ptr %5, align 8
  %55 = getelementptr inbounds %struct.VHeader_, ptr %54, i64 1
  ret ptr %55
}

; Function Attrs: nounwind uwtable
define dso_local ptr @llvm_get_debug_file(ptr noundef %0, i16 noundef zeroext %1) #0 {
  %3 = alloca i32, align 4
  %4 = alloca ptr, align 8
  %5 = alloca ptr, align 8
  %6 = alloca i32, align 4
  %7 = alloca ptr, align 8
  %8 = alloca ptr, align 8
  %9 = alloca ptr, align 8
  %10 = alloca ptr, align 8
  %11 = alloca i16, align 2
  %12 = alloca i32, align 4
  %13 = alloca i32, align 4
  %14 = alloca ptr, align 8
  %15 = alloca ptr, align 8
  %16 = alloca ptr, align 8
  %17 = alloca %struct.DebugFile_, align 8
  %18 = alloca ptr, align 8
  store ptr %0, ptr %10, align 8
  store i16 %1, ptr %11, align 2
  store i32 0, ptr %12, align 4
  %19 = load ptr, ptr %10, align 8
  %20 = getelementptr inbounds %struct.GenContext_, ptr %19, i32 0, i32 36
  %21 = getelementptr inbounds %struct.DebugContext, ptr %20, i32 0, i32 2
  %22 = load ptr, ptr %21, align 8
  store ptr %22, ptr %4, align 8
  %23 = load ptr, ptr %4, align 8
  %24 = icmp ne ptr %23, null
  br i1 %24, label %26, label %25

25:                                               ; preds = %2
  store i32 0, ptr %3, align 4
  br label %31

26:                                               ; preds = %2
  %27 = load ptr, ptr %4, align 8
  store ptr %27, ptr %5, align 8
  %28 = load ptr, ptr %5, align 8
  %29 = getelementptr inbounds %struct.VHeader_, ptr %28, i64 -1
  %30 = load i32, ptr %29, align 4
  store i32 %30, ptr %3, align 4
  br label %31

31:                                               ; preds = %26, %25
  %32 = load i32, ptr %3, align 4
  store i32 %32, ptr %13, align 4
  br label %33

33:                                               ; preds = %57, %31
  %34 = load i32, ptr %12, align 4
  %35 = load i32, ptr %13, align 4
  %36 = icmp ult i32 %34, %35
  br i1 %36, label %37, label %60

37:                                               ; preds = %33
  %38 = load ptr, ptr %10, align 8
  %39 = getelementptr inbounds %struct.GenContext_, ptr %38, i32 0, i32 36
  %40 = getelementptr inbounds %struct.DebugContext, ptr %39, i32 0, i32 2
  %41 = load ptr, ptr %40, align 8
  %42 = load i32, ptr %12, align 4
  %43 = zext i32 %42 to i64
  %44 = getelementptr inbounds %struct.DebugFile_, ptr %41, i64 %43
  store ptr %44, ptr %14, align 8
  %45 = load ptr, ptr %14, align 8
  %46 = getelementptr inbounds %struct.DebugFile_, ptr %45, i32 0, i32 0
  %47 = load i16, ptr %46, align 8
  %48 = zext i16 %47 to i32
  %49 = load i16, ptr %11, align 2
  %50 = zext i16 %49 to i32
  %51 = icmp eq i32 %48, %50
  br i1 %51, label %52, label %56

52:                                               ; preds = %37
  %53 = load ptr, ptr %14, align 8
  %54 = getelementptr inbounds %struct.DebugFile_, ptr %53, i32 0, i32 1
  %55 = load ptr, ptr %54, align 8
  store ptr %55, ptr %9, align 8
  br label %119

56:                                               ; preds = %37
  br label %57

57:                                               ; preds = %56
  %58 = load i32, ptr %12, align 4
  %59 = add i32 %58, 1
  store i32 %59, ptr %12, align 4
  br label %33, !llvm.loop !36

60:                                               ; preds = %33
  %61 = load i16, ptr %11, align 2
  %62 = call ptr @source_file_by_id(i16 noundef zeroext %61)
  store ptr %62, ptr %15, align 8
  %63 = load ptr, ptr %10, align 8
  %64 = getelementptr inbounds %struct.GenContext_, ptr %63, i32 0, i32 36
  %65 = getelementptr inbounds %struct.DebugContext, ptr %64, i32 0, i32 1
  %66 = load ptr, ptr %65, align 8
  %67 = load ptr, ptr %15, align 8
  %68 = getelementptr inbounds %struct.File, ptr %67, i32 0, i32 3
  %69 = load ptr, ptr %68, align 8
  %70 = load ptr, ptr %15, align 8
  %71 = getelementptr inbounds %struct.File, ptr %70, i32 0, i32 3
  %72 = load ptr, ptr %71, align 8
  %73 = call i64 @strlen(ptr noundef %72) #8
  %74 = load ptr, ptr %15, align 8
  %75 = getelementptr inbounds %struct.File, ptr %74, i32 0, i32 4
  %76 = load ptr, ptr %75, align 8
  %77 = load ptr, ptr %15, align 8
  %78 = getelementptr inbounds %struct.File, ptr %77, i32 0, i32 4
  %79 = load ptr, ptr %78, align 8
  %80 = call i64 @strlen(ptr noundef %79) #8
  %81 = call ptr @LLVMDIBuilderCreateFile(ptr noundef %66, ptr noundef %69, i64 noundef %73, ptr noundef %76, i64 noundef %80)
  store ptr %81, ptr %16, align 8
  %82 = getelementptr inbounds %struct.DebugFile_, ptr %17, i32 0, i32 0
  %83 = load i16, ptr %11, align 2
  store i16 %83, ptr %82, align 8
  %84 = getelementptr inbounds %struct.DebugFile_, ptr %17, i32 0, i32 1
  %85 = load ptr, ptr %16, align 8
  store ptr %85, ptr %84, align 8
  br label %86

86:                                               ; preds = %60
  %87 = load ptr, ptr %10, align 8
  %88 = getelementptr inbounds %struct.GenContext_, ptr %87, i32 0, i32 36
  %89 = getelementptr inbounds %struct.DebugContext, ptr %88, i32 0, i32 2
  %90 = load ptr, ptr %89, align 8
  %91 = call ptr @expand_(ptr noundef %90, i64 noundef 16)
  store ptr %91, ptr %18, align 8
  %92 = load ptr, ptr %18, align 8
  %93 = load ptr, ptr %10, align 8
  %94 = getelementptr inbounds %struct.GenContext_, ptr %93, i32 0, i32 36
  %95 = getelementptr inbounds %struct.DebugContext, ptr %94, i32 0, i32 2
  store ptr %92, ptr %95, align 8
  %96 = load ptr, ptr %10, align 8
  %97 = getelementptr inbounds %struct.GenContext_, ptr %96, i32 0, i32 36
  %98 = getelementptr inbounds %struct.DebugContext, ptr %97, i32 0, i32 2
  %99 = load ptr, ptr %98, align 8
  %100 = load ptr, ptr %10, align 8
  %101 = getelementptr inbounds %struct.GenContext_, ptr %100, i32 0, i32 36
  %102 = getelementptr inbounds %struct.DebugContext, ptr %101, i32 0, i32 2
  %103 = load ptr, ptr %102, align 8
  store ptr %103, ptr %7, align 8
  %104 = load ptr, ptr %7, align 8
  %105 = icmp ne ptr %104, null
  br i1 %105, label %107, label %106

106:                                              ; preds = %86
  store i32 0, ptr %6, align 4
  br label %112

107:                                              ; preds = %86
  %108 = load ptr, ptr %7, align 8
  store ptr %108, ptr %8, align 8
  %109 = load ptr, ptr %8, align 8
  %110 = getelementptr inbounds %struct.VHeader_, ptr %109, i64 -1
  %111 = load i32, ptr %110, align 4
  store i32 %111, ptr %6, align 4
  br label %112

112:                                              ; preds = %107, %106
  %113 = load i32, ptr %6, align 4
  %114 = sub i32 %113, 1
  %115 = zext i32 %114 to i64
  %116 = getelementptr inbounds %struct.DebugFile_, ptr %99, i64 %115
  call void @llvm.memcpy.p0.p0.i64(ptr align 8 %116, ptr align 8 %17, i64 16, i1 false)
  br label %117

117:                                              ; preds = %112
  %118 = load ptr, ptr %16, align 8
  store ptr %118, ptr %9, align 8
  br label %119

119:                                              ; preds = %117, %52
  %120 = load ptr, ptr %9, align 8
  ret ptr %120
}