; Function Attrs: nounwind uwtable
define dso_local ptr @llvm_get_debug_file(ptr nocapture noundef %0, i16 noundef zeroext %1) local_unnamed_addr #0 {
  %3 = getelementptr inbounds i8, ptr %0, i64 312
  %4 = load ptr, ptr %3, align 8
  %.not = icmp eq ptr %4, null
  br i1 %.not, label %._crit_edge, label %5

5:                                                ; preds = %2
  %6 = getelementptr inbounds i8, ptr %4, i64 -8
  %7 = load i32, ptr %6, align 4
  %.not39 = icmp eq i32 %7, 0
  br i1 %.not39, label %._crit_edge, label %.lr.ph.preheader

.lr.ph.preheader:                                 ; preds = %5
  %wide.trip.count = zext i32 %7 to i64
  br label %.lr.ph

8:                                                ; preds = %.lr.ph
  %indvars.iv.next = add nuw nsw i64 %indvars.iv, 1
  %exitcond.not = icmp eq i64 %indvars.iv.next, %wide.trip.count
  br i1 %exitcond.not, label %._crit_edge, label %.lr.ph, !llvm.loop !37

.lr.ph:                                           ; preds = %.lr.ph.preheader, %8
  %indvars.iv = phi i64 [ 0, %.lr.ph.preheader ], [ %indvars.iv.next, %8 ]
  %9 = getelementptr inbounds %struct.DebugFile_, ptr %4, i64 %indvars.iv
  %10 = load i16, ptr %9, align 8
  %11 = icmp eq i16 %10, %1
  br i1 %11, label %12, label %8

12:                                               ; preds = %.lr.ph
  %13 = getelementptr inbounds i8, ptr %9, i64 8
  %14 = load ptr, ptr %13, align 8
  br label %57

._crit_edge:                                      ; preds = %8, %2, %5
  %15 = tail call ptr @source_file_by_id(i16 noundef zeroext %1) #10
  %16 = getelementptr inbounds i8, ptr %0, i64 304
  %17 = load ptr, ptr %16, align 8
  %18 = getelementptr inbounds i8, ptr %15, i64 24
  %19 = load ptr, ptr %18, align 8
  %20 = tail call i64 @strlen(ptr noundef nonnull dereferenceable(1) %19) #11
  %21 = getelementptr inbounds i8, ptr %15, i64 32
  %22 = load ptr, ptr %21, align 8
  %23 = tail call i64 @strlen(ptr noundef nonnull dereferenceable(1) %22) #11
  %24 = tail call ptr @LLVMDIBuilderCreateFile(ptr noundef %17, ptr noundef %19, i64 noundef %20, ptr noundef %22, i64 noundef %23) #10
  %25 = load ptr, ptr %3, align 8
  %.not.i = icmp eq ptr %25, null
  br i1 %.not.i, label %26, label %29

26:                                               ; preds = %._crit_edge
  %27 = tail call ptr @calloc_arena(i64 noundef 136) #10
  %28 = getelementptr inbounds i8, ptr %27, i64 4
  store i32 8, ptr %28, align 4
  br label %31

29:                                               ; preds = %._crit_edge
  %30 = getelementptr inbounds i8, ptr %25, i64 -8
  %.phi.trans.insert.i = getelementptr inbounds i8, ptr %25, i64 -4
  %.pre.i = load i32, ptr %.phi.trans.insert.i, align 4
  br label %31

31:                                               ; preds = %29, %26
  %32 = phi i32 [ %.pre.i, %29 ], [ 8, %26 ]
  %.0.i = phi ptr [ %30, %29 ], [ %27, %26 ]
  %33 = load i32, ptr %.0.i, align 4
  %34 = icmp eq i32 %33, %32
  br i1 %34, label %35, label %49

35:                                               ; preds = %31
  %36 = getelementptr inbounds i8, ptr %.0.i, i64 4
  %37 = shl i32 %32, 1
  %38 = zext i32 %37 to i64
  %39 = shl nuw nsw i64 %38, 4
  %40 = or disjoint i64 %39, 8
  %41 = tail call ptr @calloc_arena(i64 noundef %40) #10
  %42 = getelementptr inbounds i8, ptr %41, i64 4
  store i32 %37, ptr %42, align 4
  %43 = load i32, ptr %36, align 4
  %44 = zext i32 %43 to i64
  %45 = shl nuw nsw i64 %44, 4
  %46 = or disjoint i64 %45, 8
  tail call void @llvm.memcpy.p0.p0.i64(ptr noundef nonnull align 4 dereferenceable(1) %41, ptr noundef nonnull align 4 dereferenceable(1) %.0.i, i64 %46, i1 false)
  %47 = load i32, ptr %42, align 4
  %48 = shl i32 %47, 1
  store i32 %48, ptr %42, align 4
  %.pre18.i = load i32, ptr %41, align 4
  br label %49

49:                                               ; preds = %31, %35
  %50 = phi i32 [ %.pre18.i, %35 ], [ %33, %31 ]
  %.1.i = phi ptr [ %41, %35 ], [ %.0.i, %31 ]
  %51 = add i32 %50, 1
  store i32 %51, ptr %.1.i, align 4
  %52 = getelementptr inbounds i8, ptr %.1.i, i64 8
  store ptr %52, ptr %3, align 8
  %53 = load i32, ptr %.1.i, align 4
  %54 = add i32 %53, -1
  %55 = zext i32 %54 to i64
  %56 = getelementptr inbounds %struct.DebugFile_, ptr %52, i64 %55
  store i16 %1, ptr %56, align 8
  %.sroa.21.0..sroa_idx = getelementptr inbounds i8, ptr %56, i64 8
  store ptr %24, ptr %.sroa.21.0..sroa_idx, align 8
  br label %57

57:                                               ; preds = %49, %12
  %.033 = phi ptr [ %14, %12 ], [ %24, %49 ]
  ret ptr %.033
}